target datalayout = "e-m:e-p270:32:32-p271:32:32-p272:64:64-i64:64-i128:128-f80:128-n8:16:32:64-S128"
target triple = "x86_64-pc-linux-gnu"

@.str.5 = private unnamed_addr constant [6 x i8] c"fd:%d\00", align 1
@.str.6 = private unnamed_addr constant [35 x i8] c"[%s] Unable to set TCP_NODELAY: %s\00", align 1

; Function Attrs: nounwind uwtable
define dso_local i32 @net_set_nodelay(i32 noundef %0, i1 noundef zeroext %1, ptr noundef %2) #0 {
  %4 = alloca i32, align 4
  %5 = alloca i32, align 4
  %6 = alloca i8, align 1
  %7 = alloca ptr, align 8
  %8 = alloca i32, align 4
  %9 = alloca i32, align 4
  %10 = alloca i32, align 4
  %11 = alloca [25 x i8], align 16
  store i32 %0, ptr %5, align 4
  %12 = zext i1 %1 to i8
  store i8 %12, ptr %6, align 1
  store ptr %2, ptr %7, align 8
  call void @llvm.lifetime.start.p0(i64 4, ptr %8) #9
  %13 = load i32, ptr %5, align 4
  %14 = icmp slt i32 %13, 0
  br i1 %14, label %15, label %16

15:                                               ; preds = %3
  store i32 9, ptr %4, align 4
  store i32 1, ptr %9, align 4
  br label %42

16:                                               ; preds = %3
  %17 = load i8, ptr %6, align 1, !range !8, !noundef !9
  %18 = trunc i8 %17 to i1
  br i1 %18, label %19, label %20

19:                                               ; preds = %16
  store i32 1, ptr %8, align 4
  br label %21

20:                                               ; preds = %16
  store i32 0, ptr %8, align 4
  br label %21

21:                                               ; preds = %20, %19
  %22 = load i32, ptr %5, align 4
  %23 = call i32 @setsockopt(i32 noundef %22, i32 noundef 6, i32 noundef 1, ptr noundef %8, i32 noundef 4) #9
  %24 = icmp ne i32 %23, 0
  br i1 %24, label %25, label %41

25:                                               ; preds = %21
  call void @llvm.lifetime.start.p0(i64 4, ptr %10) #9
  %26 = call ptr @__errno_location() #10
  %27 = load i32, ptr %26, align 4
  store i32 %27, ptr %10, align 4
  call void @llvm.lifetime.start.p0(i64 25, ptr %11) #9
  call void @llvm.memset.p0.i64(ptr align 16 %11, i8 0, i64 25, i1 false)
  %28 = load ptr, ptr %7, align 8
  %29 = icmp ne ptr %28, null
  br i1 %29, label %35, label %30

30:                                               ; preds = %25
  %31 = getelementptr inbounds [25 x i8], ptr %11, i64 0, i64 0
  %32 = load i32, ptr %5, align 4
  %33 = call i32 (ptr, i64, ptr, ...) @snprintf(ptr noundef %31, i64 noundef 25, ptr noundef @.str.5, i32 noundef %32) #9
  %34 = getelementptr inbounds [25 x i8], ptr %11, i64 0, i64 0
  store ptr %34, ptr %7, align 8
  br label %35

35:                                               ; preds = %30, %25
  %36 = load ptr, ptr %7, align 8
  %37 = load i32, ptr %10, align 4
  %38 = call ptr @slurm_strerror(i32 noundef %37)
  %39 = call i32 (ptr, ...) @error(ptr noundef @.str.6, ptr noundef %36, ptr noundef %38)
  %40 = load i32, ptr %10, align 4
  store i32 %40, ptr %4, align 4
  store i32 1, ptr %9, align 4
  call void @llvm.lifetime.end.p0(i64 25, ptr %11) #9
  call void @llvm.lifetime.end.p0(i64 4, ptr %10) #9
  br label %42

41:                                               ; preds = %21
  store i32 0, ptr %4, align 4
  store i32 1, ptr %9, align 4
  br label %42

42:                                               ; preds = %41, %35, %15
  call void @llvm.lifetime.end.p0(i64 4, ptr %8) #9
  %43 = load i32, ptr %4, align 4
  ret i32 %43
}