; Function Attrs: nounwind uwtable
define dso_local i32 @net_set_nodelay(i32 noundef %0, i1 noundef zeroext %1, ptr noundef %2) local_unnamed_addr #0 {
  %4 = alloca i32, align 4
  %5 = alloca [25 x i8], align 16
  call void @llvm.lifetime.start.p0(i64 4, ptr nonnull %4) #11
  %6 = icmp slt i32 %0, 0
  br i1 %6, label %17, label %7

7:                                                ; preds = %3
  %. = zext i1 %1 to i32
  store i32 %., ptr %4, align 4
  %8 = call i32 @setsockopt(i32 noundef %0, i32 noundef 6, i32 noundef 1, ptr noundef nonnull %4, i32 noundef 4) #11
  %.not = icmp eq i32 %8, 0
  br i1 %.not, label %17, label %9

9:                                                ; preds = %7
  %10 = tail call ptr @__errno_location() #12
  %11 = load i32, ptr %10, align 4
  call void @llvm.lifetime.start.p0(i64 25, ptr nonnull %5) #11
  call void @llvm.memset.p0.i64(ptr noundef nonnull align 16 dereferenceable(25) %5, i8 0, i64 25, i1 false)
  %.not11 = icmp eq ptr %2, null
  br i1 %.not11, label %12, label %14

12:                                               ; preds = %9
  %13 = call i32 (ptr, i64, ptr, ...) @snprintf(ptr noundef nonnull dereferenceable(1) %5, i64 noundef 25, ptr noundef nonnull @.str.5, i32 noundef %0) #11
  br label %14

14:                                               ; preds = %12, %9
  %.08 = phi ptr [ %2, %9 ], [ %5, %12 ]
  %15 = call ptr @slurm_strerror(i32 noundef %11) #11
  %16 = call i32 (ptr, ...) @error(ptr noundef nonnull @.str.6, ptr noundef nonnull %.08, ptr noundef %15) #11
  call void @llvm.lifetime.end.p0(i64 25, ptr nonnull %5) #11
  br label %17

17:                                               ; preds = %7, %3, %14
  %.0 = phi i32 [ %11, %14 ], [ 9, %3 ], [ 0, %7 ]
  call void @llvm.lifetime.end.p0(i64 4, ptr nonnull %4) #11
  ret i32 %.0
}